; Function Attrs: nounwind uwtable
define noalias nonnull ptr @l_Lean_Syntax_node6(ptr noundef %0, ptr noundef %1, ptr noundef %2, ptr noundef %3, ptr noundef %4, ptr noundef %5, ptr noundef %6, ptr noundef %7) local_unnamed_addr #0 {
  %9 = load ptr, ptr @l_Array_mkArray6___rarg___closed__1, align 8, !tbaa !10
  %10 = tail call ptr @lean_array_push(ptr noundef %9, ptr noundef %2) #11
  %11 = tail call ptr @lean_array_push(ptr noundef %10, ptr noundef %3) #11
  %12 = tail call ptr @lean_array_push(ptr noundef %11, ptr noundef %4) #11
  %13 = tail call ptr @lean_array_push(ptr noundef %12, ptr noundef %5) #11
  %14 = tail call ptr @lean_array_push(ptr noundef %13, ptr noundef %6) #11
  %15 = tail call ptr @lean_array_push(ptr noundef %14, ptr noundef %7) #11
  tail call void @lean_inc_heartbeat() #11
  %16 = tail call noalias ptr @mi_malloc_small(i64 noundef 32) #11
  %17 = icmp eq ptr %16, null
  br i1 %17, label %18, label %lean_alloc_ctor.exit

18:                                               ; preds = %8
  tail call void @lean_internal_panic_out_of_memory() #12
  unreachable

lean_alloc_ctor.exit:                             ; preds = %8
  %19 = getelementptr inbounds nuw i8, ptr %16, i64 4
  store i32 1, ptr %16, align 4, !tbaa !4
  store i32 16973856, ptr %19, align 4
  %20 = getelementptr inbounds nuw i8, ptr %16, i64 8
  store ptr %0, ptr %20, align 8, !tbaa !10
  %21 = getelementptr inbounds nuw i8, ptr %16, i64 16
  store ptr %1, ptr %21, align 8, !tbaa !10
  %22 = getelementptr inbounds nuw i8, ptr %16, i64 24
  store ptr %15, ptr %22, align 8, !tbaa !10
  ret ptr %16
}